target datalayout = "e-m:e-p270:32:32-p271:32:32-p272:64:64-i64:64-i128:128-f80:128-n8:16:32:64-S128"
target triple = "x86_64-pc-linux-gnu"

%"class.std::initializer_list" = type { ptr, i64 }
%"class.open3d::core::SmallVectorBase" = type { ptr, i32, i32 }
%"class.open3d::utility::optional" = type { %"struct.open3d::utility::constexpr_optional_base" }
%"struct.open3d::utility::constexpr_optional_base" = type { i8, %"union.open3d::utility::constexpr_storage_t" }
%"union.open3d::utility::constexpr_storage_t" = type { i64 }

; Function Attrs: mustprogress nounwind ssp uwtable
define linkonce_odr noundef i64 @_ZNKSt16initializer_listIN6open3d7utility8optionalIlEEE4sizeEv(ptr noundef nonnull align 8 dereferenceable(16) %0) #2 comdat align 2 {
  %2 = alloca ptr, align 8
  store ptr %0, ptr %2, align 8, !tbaa !9
  %3 = load ptr, ptr %2, align 8
  %4 = getelementptr inbounds nuw %"class.std::initializer_list", ptr %3, i32 0, i32 1
  %5 = load i64, ptr %4, align 8, !tbaa !60
  ret i64 %5
}

; Function Attrs: mustprogress nounwind ssp uwtable
define linkonce_odr noundef i64 @_ZNK6open3d4core15SmallVectorBaseIjE4sizeEv(ptr noundef nonnull align 8 dereferenceable(16) %0) #2 comdat align 2 {
  %2 = alloca ptr, align 8
  store ptr %0, ptr %2, align 8, !tbaa !26
  %3 = load ptr, ptr %2, align 8
  %4 = getelementptr inbounds nuw %"class.open3d::core::SmallVectorBase", ptr %3, i32 0, i32 1
  %5 = load i32, ptr %4, align 8, !tbaa !31
  %6 = zext i32 %5 to i64
  ret i64 %6
}

; Function Attrs: mustprogress nounwind ssp uwtable
define linkonce_odr void @_ZN6open3d4core15SmallVectorBaseIjEC2EPvm(ptr noundef nonnull align 8 dereferenceable(16) %0, ptr noundef %1, i64 noundef %2) unnamed_addr #2 comdat align 2 {
  %4 = alloca ptr, align 8
  %5 = alloca ptr, align 8
  %6 = alloca i64, align 8
  store ptr %0, ptr %4, align 8, !tbaa !26
  store ptr %1, ptr %5, align 8, !tbaa !28
  store i64 %2, ptr %6, align 8, !tbaa !14
  %7 = load ptr, ptr %4, align 8
  %8 = getelementptr inbounds nuw %"class.open3d::core::SmallVectorBase", ptr %7, i32 0, i32 0
  %9 = load ptr, ptr %5, align 8, !tbaa !28
  store ptr %9, ptr %8, align 8, !tbaa !29
  %10 = getelementptr inbounds nuw %"class.open3d::core::SmallVectorBase", ptr %7, i32 0, i32 1
  store i32 0, ptr %10, align 8, !tbaa !31
  %11 = getelementptr inbounds nuw %"class.open3d::core::SmallVectorBase", ptr %7, i32 0, i32 2
  %12 = load i64, ptr %6, align 8, !tbaa !14
  %13 = trunc i64 %12 to i32
  store i32 %13, ptr %11, align 4, !tbaa !32
  ret void
}

; Function Attrs: mustprogress nounwind ssp uwtable
define linkonce_odr noundef ptr @_ZNK6open3d4core25SmallVectorTemplateCommonINS_7utility8optionalIlEEvE10getFirstElEv(ptr noundef nonnull align 8 dereferenceable(16) %0) #2 comdat align 2 {
  %2 = alloca ptr, align 8
  store ptr %0, ptr %2, align 8, !tbaa !24
  %3 = load ptr, ptr %2, align 8
  %4 = getelementptr inbounds nuw i8, ptr %3, i64 16
  ret ptr %4
}

; Function Attrs: mustprogress nounwind ssp uwtable
define linkonce_odr noundef ptr @_ZNKSt16initializer_listIN6open3d7utility8optionalIlEEE3endEv(ptr noundef nonnull align 8 dereferenceable(16) %0) #2 comdat align 2 {
  %2 = alloca ptr, align 8
  store ptr %0, ptr %2, align 8, !tbaa !9
  %3 = load ptr, ptr %2, align 8
  %4 = call noundef ptr @_ZNKSt16initializer_listIN6open3d7utility8optionalIlEEE5beginEv(ptr noundef nonnull align 8 dereferenceable(16) %3) #25
  %5 = call noundef i64 @_ZNKSt16initializer_listIN6open3d7utility8optionalIlEEE4sizeEv(ptr noundef nonnull align 8 dereferenceable(16) %3) #25
  %6 = getelementptr inbounds nuw %"class.open3d::utility::optional", ptr %4, i64 %5
  ret ptr %6
}

; Function Attrs: mustprogress nounwind ssp uwtable
define linkonce_odr noundef ptr @_ZNKSt16initializer_listIN6open3d7utility8optionalIlEEE5beginEv(ptr noundef nonnull align 8 dereferenceable(16) %0) #2 comdat align 2 {
  %2 = alloca ptr, align 8
  store ptr %0, ptr %2, align 8, !tbaa !9
  %3 = load ptr, ptr %2, align 8
  %4 = getelementptr inbounds nuw %"class.std::initializer_list", ptr %3, i32 0, i32 0
  %5 = load ptr, ptr %4, align 8, !tbaa !35
  ret ptr %5
}

; Function Attrs: mustprogress nounwind ssp uwtable
define linkonce_odr void @_ZN6open3d4core23SmallVectorTemplateBaseINS_7utility8optionalIlEELb0EE13destroy_rangeEPS4_S6_(ptr noundef %0, ptr noundef %1) #2 comdat align 2 {
  %3 = alloca ptr, align 8
  %4 = alloca ptr, align 8
  store ptr %0, ptr %3, align 8, !tbaa !12
  store ptr %1, ptr %4, align 8, !tbaa !12
  br label %5

5:                                                ; preds = %9, %2
  %6 = load ptr, ptr %3, align 8, !tbaa !12
  %7 = load ptr, ptr %4, align 8, !tbaa !12
  %8 = icmp ne ptr %6, %7
  br i1 %8, label %9, label %12

9:                                                ; preds = %5
  %10 = load ptr, ptr %4, align 8, !tbaa !12
  %11 = getelementptr inbounds %"class.open3d::utility::optional", ptr %10, i32 -1
  store ptr %11, ptr %4, align 8, !tbaa !12
  br label %5, !llvm.loop !33

12:                                               ; preds = %5
  ret void
}

; Function Attrs: mustprogress ssp uwtable
define linkonce_odr noundef ptr @_ZN6open3d4core25SmallVectorTemplateCommonINS_7utility8optionalIlEEvE3endEv(ptr noundef nonnull align 8 dereferenceable(16) %0) #0 comdat align 2 {
  %2 = alloca ptr, align 8
  store ptr %0, ptr %2, align 8, !tbaa !24
  %3 = load ptr, ptr %2, align 8
  %4 = call noundef ptr @_ZN6open3d4core25SmallVectorTemplateCommonINS_7utility8optionalIlEEvE5beginEv(ptr noundef nonnull align 8 dereferenceable(16) %3)
  %5 = call noundef i64 @_ZNK6open3d4core15SmallVectorBaseIjE4sizeEv(ptr noundef nonnull align 8 dereferenceable(16) %3)
  %6 = getelementptr inbounds nuw %"class.open3d::utility::optional", ptr %4, i64 %5
  ret ptr %6
}

; Function Attrs: mustprogress ssp uwtable
define linkonce_odr void @_ZN6open3d4core25SmallVectorTemplateCommonINS_7utility8optionalIlEEvEC2Em(ptr noundef nonnull align 8 dereferenceable(16) %0, i64 noundef %1) unnamed_addr #0 comdat align 2 {
  %3 = alloca ptr, align 8
  %4 = alloca i64, align 8
  store ptr %0, ptr %3, align 8, !tbaa !24
  store i64 %1, ptr %4, align 8, !tbaa !14
  %5 = load ptr, ptr %3, align 8
  %6 = call noundef ptr @_ZNK6open3d4core25SmallVectorTemplateCommonINS_7utility8optionalIlEEvE10getFirstElEv(ptr noundef nonnull align 8 dereferenceable(16) %5)
  %7 = load i64, ptr %4, align 8, !tbaa !14
  call void @_ZN6open3d4core15SmallVectorBaseIjEC2EPvm(ptr noundef nonnull align 8 dereferenceable(16) %5, ptr noundef %6, i64 noundef %7)
  ret void
}

; Function Attrs: mustprogress nounwind ssp uwtable
define linkonce_odr noundef ptr @_ZN6open3d4core25SmallVectorTemplateCommonINS_7utility8optionalIlEEvE5beginEv(ptr noundef nonnull align 8 dereferenceable(16) %0) #2 comdat align 2 {
  %2 = alloca ptr, align 8
  store ptr %0, ptr %2, align 8, !tbaa !24
  %3 = load ptr, ptr %2, align 8
  %4 = getelementptr inbounds nuw %"class.open3d::core::SmallVectorBase", ptr %3, i32 0, i32 0
  %5 = load ptr, ptr %4, align 8, !tbaa !29
  ret ptr %5
}

; Function Attrs: mustprogress nounwind ssp uwtable
define linkonce_odr noundef zeroext i1 @_ZNK6open3d4core25SmallVectorTemplateCommonINS_7utility8optionalIlEEvE7isSmallEv(ptr noundef nonnull align 8 dereferenceable(16) %0) #2 comdat align 2 {
  %2 = alloca ptr, align 8
  store ptr %0, ptr %2, align 8, !tbaa !24
  %3 = load ptr, ptr %2, align 8
  %4 = getelementptr inbounds nuw %"class.open3d::core::SmallVectorBase", ptr %3, i32 0, i32 0
  %5 = load ptr, ptr %4, align 8, !tbaa !29
  %6 = call noundef ptr @_ZNK6open3d4core25SmallVectorTemplateCommonINS_7utility8optionalIlEEvE10getFirstElEv(ptr noundef nonnull align 8 dereferenceable(16) %3)
  %7 = icmp eq ptr %5, %6
  ret i1 %7
}

; Function Attrs: mustprogress ssp uwtable
define linkonce_odr void @_ZN6open3d4core15SmallVectorImplINS_7utility8optionalIlEEE6appendESt16initializer_listIS4_E(ptr noundef nonnull align 8 dereferenceable(16) %0, ptr %1, i64 %2) #0 comdat align 2 {
  %4 = alloca %"class.std::initializer_list", align 8
  %5 = alloca ptr, align 8
  %6 = getelementptr inbounds nuw { ptr, i64 }, ptr %4, i32 0, i32 0
  store ptr %1, ptr %6, align 8
  %7 = getelementptr inbounds nuw { ptr, i64 }, ptr %4, i32 0, i32 1
  store i64 %2, ptr %7, align 8
  store ptr %0, ptr %5, align 8, !tbaa !18
  %8 = load ptr, ptr %5, align 8
  %9 = call noundef ptr @_ZNKSt16initializer_listIN6open3d7utility8optionalIlEEE5beginEv(ptr noundef nonnull align 8 dereferenceable(16) %4) #25
  %10 = call noundef ptr @_ZNKSt16initializer_listIN6open3d7utility8optionalIlEEE3endEv(ptr noundef nonnull align 8 dereferenceable(16) %4) #25
  call void @_ZN6open3d4core15SmallVectorImplINS_7utility8optionalIlEEE6appendIPKS4_vEEvT_S9_(ptr noundef nonnull align 8 dereferenceable(16) %8, ptr noundef %9, ptr noundef %10)
  ret void
}

; Function Attrs: mustprogress ssp uwtable
define linkonce_odr void @_ZN6open3d4core15SmallVectorImplINS_7utility8optionalIlEEE5clearEv(ptr noundef nonnull align 8 dereferenceable(16) %0) #0 comdat align 2 {
  %2 = alloca ptr, align 8
  store ptr %0, ptr %2, align 8, !tbaa !18
  %3 = load ptr, ptr %2, align 8
  %4 = call noundef ptr @_ZN6open3d4core25SmallVectorTemplateCommonINS_7utility8optionalIlEEvE5beginEv(ptr noundef nonnull align 8 dereferenceable(16) %3)
  %5 = call noundef ptr @_ZN6open3d4core25SmallVectorTemplateCommonINS_7utility8optionalIlEEvE3endEv(ptr noundef nonnull align 8 dereferenceable(16) %3)
  call void @_ZN6open3d4core23SmallVectorTemplateBaseINS_7utility8optionalIlEELb0EE13destroy_rangeEPS4_S6_(ptr noundef %4, ptr noundef %5)
  %6 = getelementptr inbounds nuw %"class.open3d::core::SmallVectorBase", ptr %3, i32 0, i32 1
  store i32 0, ptr %6, align 8, !tbaa !31
  ret void
}

; Function Attrs: mustprogress ssp uwtable
define linkonce_odr void @_ZN6open3d4core23SmallVectorTemplateBaseINS_7utility8optionalIlEELb0EEC2Em(ptr noundef nonnull align 8 dereferenceable(16) %0, i64 noundef %1) unnamed_addr #0 comdat align 2 {
  %3 = alloca ptr, align 8
  %4 = alloca i64, align 8
  store ptr %0, ptr %3, align 8, !tbaa !22
  store i64 %1, ptr %4, align 8, !tbaa !14
  %5 = load ptr, ptr %3, align 8
  %6 = load i64, ptr %4, align 8, !tbaa !14
  call void @_ZN6open3d4core25SmallVectorTemplateCommonINS_7utility8optionalIlEEvEC2Em(ptr noundef nonnull align 8 dereferenceable(16) %5, i64 noundef %6)
  ret void
}

; Function Attrs: mustprogress nounwind ssp uwtable
define linkonce_odr void @_ZN6open3d4core15SmallVectorImplINS_7utility8optionalIlEEED2Ev(ptr noundef nonnull align 8 dereferenceable(16) %0) unnamed_addr #2 comdat align 2 {
  %2 = alloca ptr, align 8
  store ptr %0, ptr %2, align 8, !tbaa !18
  %3 = load ptr, ptr %2, align 8
  %4 = call noundef zeroext i1 @_ZNK6open3d4core25SmallVectorTemplateCommonINS_7utility8optionalIlEEvE7isSmallEv(ptr noundef nonnull align 8 dereferenceable(16) %3)
  br i1 %4, label %7, label %5

5:                                                ; preds = %1
  %6 = call noundef ptr @_ZN6open3d4core25SmallVectorTemplateCommonINS_7utility8optionalIlEEvE5beginEv(ptr noundef nonnull align 8 dereferenceable(16) %3)
  call void @free(ptr noundef %6) #25
  br label %7

7:                                                ; preds = %5, %1
  ret void
}

; Function Attrs: mustprogress ssp uwtable
define linkonce_odr void @_ZN6open3d4core15SmallVectorImplINS_7utility8optionalIlEEE6assignESt16initializer_listIS4_E(ptr noundef nonnull align 8 dereferenceable(16) %0, ptr %1, i64 %2) #0 comdat align 2 {
  %4 = alloca %"class.std::initializer_list", align 8
  %5 = alloca ptr, align 8
  %6 = alloca %"class.std::initializer_list", align 8
  %7 = getelementptr inbounds nuw { ptr, i64 }, ptr %4, i32 0, i32 0
  store ptr %1, ptr %7, align 8
  %8 = getelementptr inbounds nuw { ptr, i64 }, ptr %4, i32 0, i32 1
  store i64 %2, ptr %8, align 8
  store ptr %0, ptr %5, align 8, !tbaa !18
  %9 = load ptr, ptr %5, align 8
  call void @_ZN6open3d4core15SmallVectorImplINS_7utility8optionalIlEEE5clearEv(ptr noundef nonnull align 8 dereferenceable(16) %9)
  call void @llvm.memcpy.p0.p0.i64(ptr align 8 %6, ptr align 8 %4, i64 16, i1 false), !tbaa.struct !11
  %10 = getelementptr inbounds nuw { ptr, i64 }, ptr %6, i32 0, i32 0
  %11 = load ptr, ptr %10, align 8
  %12 = getelementptr inbounds nuw { ptr, i64 }, ptr %6, i32 0, i32 1
  %13 = load i64, ptr %12, align 8
  call void @_ZN6open3d4core15SmallVectorImplINS_7utility8optionalIlEEE6appendESt16initializer_listIS4_E(ptr noundef nonnull align 8 dereferenceable(16) %9, ptr %11, i64 %13)
  ret void
}

; Function Attrs: mustprogress ssp uwtable
define linkonce_odr void @_ZN6open3d4core15SmallVectorImplINS_7utility8optionalIlEEEC2Ej(ptr noundef nonnull align 8 dereferenceable(16) %0, i32 noundef %1) unnamed_addr #0 comdat align 2 {
  %3 = alloca ptr, align 8
  %4 = alloca i32, align 4
  store ptr %0, ptr %3, align 8, !tbaa !18
  store i32 %1, ptr %4, align 4, !tbaa !20
  %5 = load ptr, ptr %3, align 8
  %6 = load i32, ptr %4, align 4, !tbaa !20
  %7 = zext i32 %6 to i64
  call void @_ZN6open3d4core23SmallVectorTemplateBaseINS_7utility8optionalIlEELb0EEC2Em(ptr noundef nonnull align 8 dereferenceable(16) %5, i64 noundef %7)
  ret void
}

; Function Attrs: mustprogress ssp uwtable
define linkonce_odr void @_ZN6open3d4core11SmallVectorINS_7utility8optionalIlEELj4EEC2ESt16initializer_listIS4_E(ptr noundef nonnull align 8 dereferenceable(80) %0, ptr %1, i64 %2) unnamed_addr #0 comdat align 2 personality ptr @__gxx_personality_v0 {
  %4 = alloca %"class.std::initializer_list", align 8
  %5 = alloca ptr, align 8
  %6 = alloca %"class.std::initializer_list", align 8
  %7 = alloca ptr, align 8
  %8 = alloca i32, align 4
  %9 = getelementptr inbounds nuw { ptr, i64 }, ptr %4, i32 0, i32 0
  store ptr %1, ptr %9, align 8
  %10 = getelementptr inbounds nuw { ptr, i64 }, ptr %4, i32 0, i32 1
  store i64 %2, ptr %10, align 8
  store ptr %0, ptr %5, align 8, !tbaa !16
  %11 = load ptr, ptr %5, align 8
  call void @_ZN6open3d4core15SmallVectorImplINS_7utility8optionalIlEEEC2Ej(ptr noundef nonnull align 8 dereferenceable(16) %11, i32 noundef 4)
  call void @llvm.memcpy.p0.p0.i64(ptr align 8 %6, ptr align 8 %4, i64 16, i1 false), !tbaa.struct !11
  %12 = getelementptr inbounds nuw { ptr, i64 }, ptr %6, i32 0, i32 0
  %13 = load ptr, ptr %12, align 8
  %14 = getelementptr inbounds nuw { ptr, i64 }, ptr %6, i32 0, i32 1
  %15 = load i64, ptr %14, align 8
  invoke void @_ZN6open3d4core15SmallVectorImplINS_7utility8optionalIlEEE6assignESt16initializer_listIS4_E(ptr noundef nonnull align 8 dereferenceable(16) %11, ptr %13, i64 %15)
          to label %16 unwind label %17

16:                                               ; preds = %3
  ret void

17:                                               ; preds = %3
  %18 = landingpad { ptr, i32 }
          cleanup
  %19 = extractvalue { ptr, i32 } %18, 0
  store ptr %19, ptr %7, align 8
  %20 = extractvalue { ptr, i32 } %18, 1
  store i32 %20, ptr %8, align 4
  call void @_ZN6open3d4core15SmallVectorImplINS_7utility8optionalIlEEED2Ev(ptr noundef nonnull align 8 dereferenceable(16) %11) #25
  br label %21

21:                                               ; preds = %17
  %22 = load ptr, ptr %7, align 8
  %23 = load i32, ptr %8, align 4
  %24 = insertvalue { ptr, i32 } poison, ptr %22, 0
  %25 = insertvalue { ptr, i32 } %24, i32 %23, 1
  resume { ptr, i32 } %25
}

; Function Attrs: mustprogress ssp uwtable
define void @_ZN6open3d4core17DynamicSizeVectorC2ERKSt16initializer_listINS_7utility8optionalIlEEE(ptr noundef nonnull align 8 dereferenceable(80) %0, ptr noundef nonnull align 8 dereferenceable(16) %1) unnamed_addr #0 align 2 {
  %3 = alloca ptr, align 8
  %4 = alloca ptr, align 8
  %5 = alloca %"class.std::initializer_list", align 8
  store ptr %0, ptr %3, align 8, !tbaa !4
  store ptr %1, ptr %4, align 8, !tbaa !9
  %6 = load ptr, ptr %3, align 8
  %7 = load ptr, ptr %4, align 8, !tbaa !9
  call void @llvm.memcpy.p0.p0.i64(ptr align 8 %5, ptr align 8 %7, i64 16, i1 false), !tbaa.struct !11
  %8 = getelementptr inbounds nuw { ptr, i64 }, ptr %5, i32 0, i32 0
  %9 = load ptr, ptr %8, align 8
  %10 = getelementptr inbounds nuw { ptr, i64 }, ptr %5, i32 0, i32 1
  %11 = load i64, ptr %10, align 8
  call void @_ZN6open3d4core11SmallVectorINS_7utility8optionalIlEELj4EEC2ESt16initializer_listIS4_E(ptr noundef nonnull align 8 dereferenceable(80) %6, ptr %9, i64 %11)
  ret void
}