; Function Attrs: mustprogress ssp uwtable
define void @_ZN6open3d4core17DynamicSizeVectorC2ERKSt16initializer_listINS_7utility8optionalIlEEE(ptr noundef nonnull align 8 dereferenceable(80) %0, ptr noundef nonnull readonly align 8 captures(none) dereferenceable(16) %1) unnamed_addr #0 align 2 personality ptr @__gxx_personality_v0 {
  %.sroa.0.0.copyload = load ptr, ptr %1, align 8, !tbaa !4
  %.sroa.2.0..sroa_idx = getelementptr inbounds nuw i8, ptr %1, i64 8
  %.sroa.2.0.copyload = load i64, ptr %.sroa.2.0..sroa_idx, align 8, !tbaa !9
  %3 = getelementptr inbounds nuw i8, ptr %0, i64 16
  store ptr %3, ptr %0, align 8, !tbaa !11
  %4 = getelementptr inbounds nuw i8, ptr %0, i64 8
  %5 = getelementptr inbounds nuw i8, ptr %0, i64 12
  store i32 4, ptr %5, align 4, !tbaa !14
  store i32 0, ptr %4, align 8, !tbaa !15
  %6 = getelementptr inbounds nuw %"class.open3d::utility::optional", ptr %.sroa.0.0.copyload, i64 %.sroa.2.0.copyload
  invoke void @_ZN6open3d4core15SmallVectorImplINS_7utility8optionalIlEEE6appendIPKS4_vEEvT_S9_(ptr noundef nonnull align 8 dereferenceable(80) %0, ptr noundef %.sroa.0.0.copyload, ptr noundef %6)
          to label %_ZN6open3d4core11SmallVectorINS_7utility8optionalIlEELj4EEC2ESt16initializer_listIS4_E.exit unwind label %7

7:                                                ; preds = %2
  %8 = landingpad { ptr, i32 }
          cleanup
  %9 = load ptr, ptr %0, align 8, !tbaa !11
  %10 = icmp eq ptr %9, %3
  br i1 %10, label %_ZN6open3d4core15SmallVectorImplINS_7utility8optionalIlEEED2Ev.exit.i, label %11

11:                                               ; preds = %7
  tail call void @free(ptr noundef %9) #29
  br label %_ZN6open3d4core15SmallVectorImplINS_7utility8optionalIlEEED2Ev.exit.i

_ZN6open3d4core15SmallVectorImplINS_7utility8optionalIlEEED2Ev.exit.i: ; preds = %11, %7
  resume { ptr, i32 } %8

_ZN6open3d4core11SmallVectorINS_7utility8optionalIlEELj4EEC2ESt16initializer_listIS4_E.exit: ; preds = %2
  ret void
}